target datalayout = "e-m:e-p270:32:32-p271:32:32-p272:64:64-i64:64-i128:128-f80:128-n8:16:32:64-S128"
target triple = "x86_64-pc-linux-gnu"

%"class.clang::OMPClause" = type { %"class.clang::SourceLocation", %"class.clang::SourceLocation", i32 }
%"class.clang::SourceLocation" = type { i32 }
%"class.clang::OMPClauseWithPreInit.base" = type <{ ptr, i32 }>
%"class.llvm::MutableArrayRef" = type { %"class.llvm::ArrayRef" }
%"class.llvm::ArrayRef" = type { ptr, i64 }
%"class.clang::OMPClauseWithPostUpdate" = type { %"class.clang::OMPClauseWithPreInit.base", ptr }
%"class.clang::OMPLinearClause" = type { %"class.clang::OMPVarListClause.109", %"class.clang::OMPClauseWithPostUpdate", i32, %"class.clang::SourceLocation", %"class.clang::SourceLocation", %"class.clang::SourceLocation" }
%"class.clang::OMPVarListClause.109" = type { %"class.clang::OMPClause", %"class.clang::SourceLocation", i32 }

; Function Attrs: mustprogress nounwind uwtable
define linkonce_odr hidden noundef i64 @_ZN4llvm15TrailingObjectsIN5clang15OMPLinearClauseEJPNS1_4ExprEEE22callNumTrailingObjectsEPKS2_NS_25trailing_objects_internal19TrailingObjectsBase13OverloadTokenIS2_EE(ptr noundef %0) #0 comdat align 2 {
  %2 = alloca ptr, align 8
  store ptr %0, ptr %2, align 8
  ret i64 1
}

; Function Attrs: mustprogress nounwind uwtable
define linkonce_odr hidden noundef ptr @_ZN4llvm15TrailingObjectsIN5clang15OMPLinearClauseEJPNS1_4ExprEEE22getTrailingObjectsImplEPS2_NS_25trailing_objects_internal19TrailingObjectsBase13OverloadTokenIS2_EE(ptr noundef %0) #0 comdat align 2 {
  %2 = alloca ptr, align 8
  store ptr %0, ptr %2, align 8
  %3 = load ptr, ptr %2, align 8
  ret ptr %3
}

; Function Attrs: mustprogress nounwind uwtable
define linkonce_odr hidden noundef ptr @_ZN4llvm25trailing_objects_internal19TrailingObjectsImplILi8EN5clang15OMPLinearClauseENS_15TrailingObjectsIS3_JPNS2_4ExprEEEES3_JS6_EE22getTrailingObjectsImplEPS3_NS0_19TrailingObjectsBase13OverloadTokenIS6_EE(ptr noundef %0) #0 comdat align 2 {
  %2 = alloca ptr, align 8
  %3 = alloca ptr, align 8
  store ptr %0, ptr %2, align 8
  %4 = load ptr, ptr %2, align 8
  %5 = call noundef ptr @_ZN4llvm15TrailingObjectsIN5clang15OMPLinearClauseEJPNS1_4ExprEEE22getTrailingObjectsImplEPS2_NS_25trailing_objects_internal19TrailingObjectsBase13OverloadTokenIS2_EE(ptr noundef %4)
  %6 = load ptr, ptr %2, align 8
  %7 = call noundef i64 @_ZN4llvm15TrailingObjectsIN5clang15OMPLinearClauseEJPNS1_4ExprEEE22callNumTrailingObjectsEPKS2_NS_25trailing_objects_internal19TrailingObjectsBase13OverloadTokenIS2_EE(ptr noundef %6)
  %8 = getelementptr inbounds %"class.clang::OMPLinearClause", ptr %5, i64 %7
  store ptr %8, ptr %3, align 8
  %9 = load ptr, ptr %3, align 8
  ret ptr %9
}

; Function Attrs: mustprogress nounwind uwtable
define linkonce_odr hidden void @_ZN4llvm15TrailingObjectsIN5clang15OMPLinearClauseEJPNS1_4ExprEEE31verifyTrailingObjectsAssertionsEv() #0 comdat align 2 {
  ret void
}

; Function Attrs: mustprogress nounwind uwtable
define linkonce_odr hidden noundef ptr @_ZN4llvm15TrailingObjectsIN5clang15OMPLinearClauseEJPNS1_4ExprEEE18getTrailingObjectsIS4_EEPT_v(ptr noundef nonnull align 8 dereferenceable(8) %0) #0 comdat align 2 {
  %2 = alloca ptr, align 8
  store ptr %0, ptr %2, align 8
  %3 = load ptr, ptr %2, align 8
  call void @_ZN4llvm15TrailingObjectsIN5clang15OMPLinearClauseEJPNS1_4ExprEEE31verifyTrailingObjectsAssertionsEv()
  %4 = call noundef ptr @_ZN4llvm25trailing_objects_internal19TrailingObjectsImplILi8EN5clang15OMPLinearClauseENS_15TrailingObjectsIS3_JPNS2_4ExprEEEES3_JS6_EE22getTrailingObjectsImplEPS3_NS0_19TrailingObjectsBase13OverloadTokenIS6_EE(ptr noundef %3)
  ret ptr %4
}

; Function Attrs: mustprogress nounwind uwtable
define linkonce_odr hidden { ptr, i64 } @_ZN5clang16OMPVarListClauseINS_15OMPLinearClauseEE10getVarRefsEv(ptr noundef nonnull align 4 dereferenceable(20) %0) #0 comdat align 2 {
  %2 = alloca %"class.llvm::MutableArrayRef", align 8
  %3 = alloca ptr, align 8
  store ptr %0, ptr %3, align 8
  %4 = load ptr, ptr %3, align 8
  %5 = call noundef ptr @_ZN4llvm15TrailingObjectsIN5clang15OMPLinearClauseEJPNS1_4ExprEEE18getTrailingObjectsIS4_EEPT_v(ptr noundef nonnull align 8 dereferenceable(8) %4)
  %6 = getelementptr inbounds nuw %"class.clang::OMPVarListClause.109", ptr %4, i32 0, i32 2
  %7 = load i32, ptr %6, align 4
  %8 = zext i32 %7 to i64
  call void @_ZN4llvm15MutableArrayRefIPN5clang4ExprEEC2EPS3_m(ptr noundef nonnull align 8 dereferenceable(16) %2, ptr noundef %5, i64 noundef %8)
  %9 = getelementptr inbounds nuw %"class.llvm::MutableArrayRef", ptr %2, i32 0, i32 0
  %10 = load { ptr, i64 }, ptr %9, align 8
  ret { ptr, i64 } %10
}

; Function Attrs: mustprogress nounwind uwtable
define linkonce_odr hidden noundef ptr @_ZNSt11__copy_moveILb0ELb1ESt26random_access_iterator_tagE8__copy_mIPN5clang4ExprEEEPT_PKS6_S9_S7_(ptr noundef %0, ptr noundef %1, ptr noundef %2) #0 comdat align 2 {
  %4 = alloca ptr, align 8
  %5 = alloca ptr, align 8
  %6 = alloca ptr, align 8
  %7 = alloca i64, align 8
  store ptr %0, ptr %4, align 8
  store ptr %1, ptr %5, align 8
  store ptr %2, ptr %6, align 8
  %8 = load ptr, ptr %5, align 8
  %9 = load ptr, ptr %4, align 8
  %10 = ptrtoint ptr %8 to i64
  %11 = ptrtoint ptr %9 to i64
  %12 = sub i64 %10, %11
  %13 = sdiv exact i64 %12, 8
  store i64 %13, ptr %7, align 8
  %14 = load i64, ptr %7, align 8
  %15 = icmp ne i64 %14, 0
  br i1 %15, label %16, label %21

16:                                               ; preds = %3
  %17 = load ptr, ptr %6, align 8
  %18 = load ptr, ptr %4, align 8
  %19 = load i64, ptr %7, align 8
  %20 = mul i64 8, %19
  call void @llvm.memmove.p0.p0.i64(ptr align 8 %17, ptr align 8 %18, i64 %20, i1 false)
  br label %21

21:                                               ; preds = %16, %3
  %22 = load ptr, ptr %6, align 8
  %23 = load i64, ptr %7, align 8
  %24 = getelementptr inbounds ptr, ptr %22, i64 %23
  ret ptr %24
}

; Function Attrs: mustprogress nounwind uwtable
define linkonce_odr hidden noundef ptr @_ZN5clang16OMPVarListClauseINS_15OMPLinearClauseEE11varlist_endEv(ptr noundef nonnull align 4 dereferenceable(20) %0) #0 comdat align 2 {
  %2 = alloca ptr, align 8
  %3 = alloca %"class.llvm::MutableArrayRef", align 8
  store ptr %0, ptr %2, align 8
  %4 = load ptr, ptr %2, align 8
  %5 = call { ptr, i64 } @_ZN5clang16OMPVarListClauseINS_15OMPLinearClauseEE10getVarRefsEv(ptr noundef nonnull align 4 dereferenceable(20) %4)
  %6 = getelementptr inbounds nuw %"class.llvm::MutableArrayRef", ptr %3, i32 0, i32 0
  %7 = getelementptr inbounds nuw { ptr, i64 }, ptr %6, i32 0, i32 0
  %8 = extractvalue { ptr, i64 } %5, 0
  store ptr %8, ptr %7, align 8
  %9 = getelementptr inbounds nuw { ptr, i64 }, ptr %6, i32 0, i32 1
  %10 = extractvalue { ptr, i64 } %5, 1
  store i64 %10, ptr %9, align 8
  %11 = call noundef ptr @_ZNK4llvm15MutableArrayRefIPN5clang4ExprEE3endEv(ptr noundef nonnull align 8 dereferenceable(16) %3)
  ret ptr %11
}

; Function Attrs: mustprogress nounwind uwtable
define linkonce_odr noundef ptr @_ZSt14__copy_move_a2ILb0EPKPN5clang4ExprEPS2_ET1_T0_S7_S6_(ptr noundef %0, ptr noundef %1, ptr noundef %2) #0 comdat {
  %4 = alloca ptr, align 8
  %5 = alloca ptr, align 8
  %6 = alloca ptr, align 8
  store ptr %0, ptr %4, align 8
  store ptr %1, ptr %5, align 8
  store ptr %2, ptr %6, align 8
  %7 = load ptr, ptr %4, align 8
  %8 = load ptr, ptr %5, align 8
  %9 = load ptr, ptr %6, align 8
  %10 = call noundef ptr @_ZNSt11__copy_moveILb0ELb1ESt26random_access_iterator_tagE8__copy_mIPN5clang4ExprEEEPT_PKS6_S9_S7_(ptr noundef %7, ptr noundef %8, ptr noundef %9)
  ret ptr %10
}

; Function Attrs: mustprogress nounwind uwtable
define linkonce_odr hidden { ptr, i64 } @_ZN5clang15OMPLinearClause11getPrivatesEv(ptr noundef nonnull align 8 dereferenceable(64) %0) #0 comdat align 2 {
  %2 = alloca %"class.llvm::MutableArrayRef", align 8
  %3 = alloca ptr, align 8
  store ptr %0, ptr %3, align 8
  %4 = load ptr, ptr %3, align 8
  %5 = call noundef ptr @_ZN5clang16OMPVarListClauseINS_15OMPLinearClauseEE11varlist_endEv(ptr noundef nonnull align 4 dereferenceable(20) %4)
  %6 = call noundef i32 @_ZNK5clang16OMPVarListClauseINS_15OMPLinearClauseEE12varlist_sizeEv(ptr noundef nonnull align 4 dereferenceable(20) %4)
  %7 = zext i32 %6 to i64
  call void @_ZN4llvm15MutableArrayRefIPN5clang4ExprEEC2EPS3_m(ptr noundef nonnull align 8 dereferenceable(16) %2, ptr noundef %5, i64 noundef %7)
  %8 = getelementptr inbounds nuw %"class.llvm::MutableArrayRef", ptr %2, i32 0, i32 0
  %9 = load { ptr, i64 }, ptr %8, align 8
  ret { ptr, i64 } %9
}

; Function Attrs: mustprogress nounwind uwtable
define linkonce_odr noundef ptr @_ZSt12__niter_wrapIPPN5clang4ExprEET_RKS4_S4_(ptr noundef nonnull align 8 dereferenceable(8) %0, ptr noundef %1) #0 comdat {
  %3 = alloca ptr, align 8
  %4 = alloca ptr, align 8
  store ptr %0, ptr %3, align 8
  store ptr %1, ptr %4, align 8
  %5 = load ptr, ptr %4, align 8
  ret ptr %5
}

; Function Attrs: mustprogress nounwind uwtable
define linkonce_odr noundef ptr @_ZSt14__copy_move_a1ILb0EPKPN5clang4ExprEPS2_ET1_T0_S7_S6_(ptr noundef %0, ptr noundef %1, ptr noundef %2) #0 comdat {
  %4 = alloca ptr, align 8
  %5 = alloca ptr, align 8
  %6 = alloca ptr, align 8
  store ptr %0, ptr %4, align 8
  store ptr %1, ptr %5, align 8
  store ptr %2, ptr %6, align 8
  %7 = load ptr, ptr %4, align 8
  %8 = load ptr, ptr %5, align 8
  %9 = load ptr, ptr %6, align 8
  %10 = call noundef ptr @_ZSt14__copy_move_a2ILb0EPKPN5clang4ExprEPS2_ET1_T0_S7_S6_(ptr noundef %7, ptr noundef %8, ptr noundef %9)
  ret ptr %10
}

; Function Attrs: mustprogress nounwind uwtable
define linkonce_odr noundef ptr @_ZSt12__niter_baseIPPN5clang4ExprEET_S4_(ptr noundef %0) #0 comdat {
  %2 = alloca ptr, align 8
  store ptr %0, ptr %2, align 8
  %3 = load ptr, ptr %2, align 8
  ret ptr %3
}

; Function Attrs: mustprogress nounwind uwtable
define linkonce_odr noundef ptr @_ZSt12__niter_baseIPKPN5clang4ExprEET_S5_(ptr noundef %0) #0 comdat {
  %2 = alloca ptr, align 8
  store ptr %0, ptr %2, align 8
  %3 = load ptr, ptr %2, align 8
  ret ptr %3
}

; Function Attrs: mustprogress nounwind uwtable
define linkonce_odr hidden noundef ptr @_ZNK4llvm8ArrayRefIPN5clang4ExprEE4dataEv(ptr noundef nonnull align 8 dereferenceable(16) %0) #0 comdat align 2 {
  %2 = alloca ptr, align 8
  store ptr %0, ptr %2, align 8
  %3 = load ptr, ptr %2, align 8
  %4 = getelementptr inbounds nuw %"class.llvm::ArrayRef", ptr %3, i32 0, i32 0
  %5 = load ptr, ptr %4, align 8
  ret ptr %5
}

; Function Attrs: mustprogress nounwind uwtable
define linkonce_odr hidden void @_ZN4llvm8ArrayRefIPN5clang4ExprEEC2EPKS3_m(ptr noundef nonnull align 8 dereferenceable(16) %0, ptr noundef %1, i64 noundef %2) unnamed_addr #0 comdat align 2 {
  %4 = alloca ptr, align 8
  %5 = alloca ptr, align 8
  %6 = alloca i64, align 8
  store ptr %0, ptr %4, align 8
  store ptr %1, ptr %5, align 8
  store i64 %2, ptr %6, align 8
  %7 = load ptr, ptr %4, align 8
  %8 = getelementptr inbounds nuw %"class.llvm::ArrayRef", ptr %7, i32 0, i32 0
  %9 = load ptr, ptr %5, align 8
  store ptr %9, ptr %8, align 8
  %10 = getelementptr inbounds nuw %"class.llvm::ArrayRef", ptr %7, i32 0, i32 1
  %11 = load i64, ptr %6, align 8
  store i64 %11, ptr %10, align 8
  ret void
}

; Function Attrs: mustprogress nounwind uwtable
define linkonce_odr hidden { ptr, i64 } @_ZN5clang15OMPLinearClause8getInitsEv(ptr noundef nonnull align 8 dereferenceable(64) %0) #0 comdat align 2 {
  %2 = alloca %"class.llvm::MutableArrayRef", align 8
  %3 = alloca ptr, align 8
  %4 = alloca %"class.llvm::MutableArrayRef", align 8
  store ptr %0, ptr %3, align 8
  %5 = load ptr, ptr %3, align 8
  %6 = call { ptr, i64 } @_ZN5clang15OMPLinearClause11getPrivatesEv(ptr noundef nonnull align 8 dereferenceable(64) %5)
  %7 = getelementptr inbounds nuw %"class.llvm::MutableArrayRef", ptr %4, i32 0, i32 0
  %8 = getelementptr inbounds nuw { ptr, i64 }, ptr %7, i32 0, i32 0
  %9 = extractvalue { ptr, i64 } %6, 0
  store ptr %9, ptr %8, align 8
  %10 = getelementptr inbounds nuw { ptr, i64 }, ptr %7, i32 0, i32 1
  %11 = extractvalue { ptr, i64 } %6, 1
  store i64 %11, ptr %10, align 8
  %12 = call noundef ptr @_ZNK4llvm15MutableArrayRefIPN5clang4ExprEE3endEv(ptr noundef nonnull align 8 dereferenceable(16) %4)
  %13 = call noundef i32 @_ZNK5clang16OMPVarListClauseINS_15OMPLinearClauseEE12varlist_sizeEv(ptr noundef nonnull align 4 dereferenceable(20) %5)
  %14 = zext i32 %13 to i64
  call void @_ZN4llvm15MutableArrayRefIPN5clang4ExprEEC2EPS3_m(ptr noundef nonnull align 8 dereferenceable(16) %2, ptr noundef %12, i64 noundef %14)
  %15 = getelementptr inbounds nuw %"class.llvm::MutableArrayRef", ptr %2, i32 0, i32 0
  %16 = load { ptr, i64 }, ptr %15, align 8
  ret { ptr, i64 } %16
}

; Function Attrs: mustprogress nounwind uwtable
define linkonce_odr noundef ptr @_ZSt13__copy_move_aILb0EPKPN5clang4ExprEPS2_ET1_T0_S7_S6_(ptr noundef %0, ptr noundef %1, ptr noundef %2) #0 comdat {
  %4 = alloca ptr, align 8
  %5 = alloca ptr, align 8
  %6 = alloca ptr, align 8
  store ptr %0, ptr %4, align 8
  store ptr %1, ptr %5, align 8
  store ptr %2, ptr %6, align 8
  %7 = load ptr, ptr %4, align 8
  %8 = call noundef ptr @_ZSt12__niter_baseIPKPN5clang4ExprEET_S5_(ptr noundef %7) #11
  %9 = load ptr, ptr %5, align 8
  %10 = call noundef ptr @_ZSt12__niter_baseIPKPN5clang4ExprEET_S5_(ptr noundef %9) #11
  %11 = load ptr, ptr %6, align 8
  %12 = call noundef ptr @_ZSt12__niter_baseIPPN5clang4ExprEET_S4_(ptr noundef %11) #11
  %13 = call noundef ptr @_ZSt14__copy_move_a1ILb0EPKPN5clang4ExprEPS2_ET1_T0_S7_S6_(ptr noundef %8, ptr noundef %10, ptr noundef %12)
  %14 = call noundef ptr @_ZSt12__niter_wrapIPPN5clang4ExprEET_RKS4_S4_(ptr noundef nonnull align 8 dereferenceable(8) %6, ptr noundef %13)
  ret ptr %14
}

; Function Attrs: mustprogress nounwind uwtable
define linkonce_odr noundef ptr @_ZSt12__miter_baseIPKPN5clang4ExprEET_S5_(ptr noundef %0) #0 comdat {
  %2 = alloca ptr, align 8
  store ptr %0, ptr %2, align 8
  %3 = load ptr, ptr %2, align 8
  ret ptr %3
}

; Function Attrs: mustprogress nounwind uwtable
define linkonce_odr hidden noundef i64 @_ZNK4llvm8ArrayRefIPN5clang4ExprEE4sizeEv(ptr noundef nonnull align 8 dereferenceable(16) %0) #0 comdat align 2 {
  %2 = alloca ptr, align 8
  store ptr %0, ptr %2, align 8
  %3 = load ptr, ptr %2, align 8
  %4 = getelementptr inbounds nuw %"class.llvm::ArrayRef", ptr %3, i32 0, i32 1
  %5 = load i64, ptr %4, align 8
  ret i64 %5
}

; Function Attrs: mustprogress nounwind uwtable
define linkonce_odr hidden noundef ptr @_ZNK4llvm15MutableArrayRefIPN5clang4ExprEE4dataEv(ptr noundef nonnull align 8 dereferenceable(16) %0) #0 comdat align 2 {
  %2 = alloca ptr, align 8
  store ptr %0, ptr %2, align 8
  %3 = load ptr, ptr %2, align 8
  %4 = call noundef ptr @_ZNK4llvm8ArrayRefIPN5clang4ExprEE4dataEv(ptr noundef nonnull align 8 dereferenceable(16) %3)
  ret ptr %4
}

; Function Attrs: mustprogress nounwind uwtable
define linkonce_odr hidden void @_ZN4llvm15MutableArrayRefIPN5clang4ExprEEC2EPS3_m(ptr noundef nonnull align 8 dereferenceable(16) %0, ptr noundef %1, i64 noundef %2) unnamed_addr #0 comdat align 2 {
  %4 = alloca ptr, align 8
  %5 = alloca ptr, align 8
  %6 = alloca i64, align 8
  store ptr %0, ptr %4, align 8
  store ptr %1, ptr %5, align 8
  store i64 %2, ptr %6, align 8
  %7 = load ptr, ptr %4, align 8
  %8 = load ptr, ptr %5, align 8
  %9 = load i64, ptr %6, align 8
  call void @_ZN4llvm8ArrayRefIPN5clang4ExprEEC2EPKS3_m(ptr noundef nonnull align 8 dereferenceable(16) %7, ptr noundef %8, i64 noundef %9)
  ret void
}

; Function Attrs: mustprogress nounwind uwtable
define linkonce_odr hidden noundef i32 @_ZNK5clang16OMPVarListClauseINS_15OMPLinearClauseEE12varlist_sizeEv(ptr noundef nonnull align 4 dereferenceable(20) %0) #0 comdat align 2 {
  %2 = alloca ptr, align 8
  store ptr %0, ptr %2, align 8
  %3 = load ptr, ptr %2, align 8
  %4 = getelementptr inbounds nuw %"class.clang::OMPVarListClause.109", ptr %3, i32 0, i32 2
  %5 = load i32, ptr %4, align 4
  ret i32 %5
}

; Function Attrs: mustprogress nounwind uwtable
define linkonce_odr hidden { ptr, i64 } @_ZN5clang15OMPLinearClause10getUpdatesEv(ptr noundef nonnull align 8 dereferenceable(64) %0) #0 comdat align 2 {
  %2 = alloca %"class.llvm::MutableArrayRef", align 8
  %3 = alloca ptr, align 8
  %4 = alloca %"class.llvm::MutableArrayRef", align 8
  store ptr %0, ptr %3, align 8
  %5 = load ptr, ptr %3, align 8
  %6 = call { ptr, i64 } @_ZN5clang15OMPLinearClause8getInitsEv(ptr noundef nonnull align 8 dereferenceable(64) %5)
  %7 = getelementptr inbounds nuw %"class.llvm::MutableArrayRef", ptr %4, i32 0, i32 0
  %8 = getelementptr inbounds nuw { ptr, i64 }, ptr %7, i32 0, i32 0
  %9 = extractvalue { ptr, i64 } %6, 0
  store ptr %9, ptr %8, align 8
  %10 = getelementptr inbounds nuw { ptr, i64 }, ptr %7, i32 0, i32 1
  %11 = extractvalue { ptr, i64 } %6, 1
  store i64 %11, ptr %10, align 8
  %12 = call noundef ptr @_ZNK4llvm15MutableArrayRefIPN5clang4ExprEE3endEv(ptr noundef nonnull align 8 dereferenceable(16) %4)
  %13 = call noundef i32 @_ZNK5clang16OMPVarListClauseINS_15OMPLinearClauseEE12varlist_sizeEv(ptr noundef nonnull align 4 dereferenceable(20) %5)
  %14 = zext i32 %13 to i64
  call void @_ZN4llvm15MutableArrayRefIPN5clang4ExprEEC2EPS3_m(ptr noundef nonnull align 8 dereferenceable(16) %2, ptr noundef %12, i64 noundef %14)
  %15 = getelementptr inbounds nuw %"class.llvm::MutableArrayRef", ptr %2, i32 0, i32 0
  %16 = load { ptr, i64 }, ptr %15, align 8
  ret { ptr, i64 } %16
}

; Function Attrs: mustprogress nounwind uwtable
define linkonce_odr noundef ptr @_ZSt4copyIPKPN5clang4ExprEPS2_ET0_T_S7_S6_(ptr noundef %0, ptr noundef %1, ptr noundef %2) #0 comdat {
  %4 = alloca ptr, align 8
  %5 = alloca ptr, align 8
  %6 = alloca ptr, align 8
  store ptr %0, ptr %4, align 8
  store ptr %1, ptr %5, align 8
  store ptr %2, ptr %6, align 8
  %7 = load ptr, ptr %4, align 8
  %8 = call noundef ptr @_ZSt12__miter_baseIPKPN5clang4ExprEET_S5_(ptr noundef %7)
  %9 = load ptr, ptr %5, align 8
  %10 = call noundef ptr @_ZSt12__miter_baseIPKPN5clang4ExprEET_S5_(ptr noundef %9)
  %11 = load ptr, ptr %6, align 8
  %12 = call noundef ptr @_ZSt13__copy_move_aILb0EPKPN5clang4ExprEPS2_ET1_T0_S7_S6_(ptr noundef %8, ptr noundef %10, ptr noundef %11)
  ret ptr %12
}

; Function Attrs: mustprogress nounwind uwtable
define linkonce_odr hidden noundef ptr @_ZNK4llvm15MutableArrayRefIPN5clang4ExprEE3endEv(ptr noundef nonnull align 8 dereferenceable(16) %0) #0 comdat align 2 {
  %2 = alloca ptr, align 8
  store ptr %0, ptr %2, align 8
  %3 = load ptr, ptr %2, align 8
  %4 = call noundef ptr @_ZNK4llvm15MutableArrayRefIPN5clang4ExprEE4dataEv(ptr noundef nonnull align 8 dereferenceable(16) %3)
  %5 = call noundef i64 @_ZNK4llvm8ArrayRefIPN5clang4ExprEE4sizeEv(ptr noundef nonnull align 8 dereferenceable(16) %3)
  %6 = getelementptr inbounds ptr, ptr %4, i64 %5
  ret ptr %6
}

; Function Attrs: mustprogress nounwind uwtable
define linkonce_odr hidden { ptr, i64 } @_ZN5clang15OMPLinearClause9getFinalsEv(ptr noundef nonnull align 8 dereferenceable(64) %0) #0 comdat align 2 {
  %2 = alloca %"class.llvm::MutableArrayRef", align 8
  %3 = alloca ptr, align 8
  %4 = alloca %"class.llvm::MutableArrayRef", align 8
  store ptr %0, ptr %3, align 8
  %5 = load ptr, ptr %3, align 8
  %6 = call { ptr, i64 } @_ZN5clang15OMPLinearClause10getUpdatesEv(ptr noundef nonnull align 8 dereferenceable(64) %5)
  %7 = getelementptr inbounds nuw %"class.llvm::MutableArrayRef", ptr %4, i32 0, i32 0
  %8 = getelementptr inbounds nuw { ptr, i64 }, ptr %7, i32 0, i32 0
  %9 = extractvalue { ptr, i64 } %6, 0
  store ptr %9, ptr %8, align 8
  %10 = getelementptr inbounds nuw { ptr, i64 }, ptr %7, i32 0, i32 1
  %11 = extractvalue { ptr, i64 } %6, 1
  store i64 %11, ptr %10, align 8
  %12 = call noundef ptr @_ZNK4llvm15MutableArrayRefIPN5clang4ExprEE3endEv(ptr noundef nonnull align 8 dereferenceable(16) %4)
  %13 = call noundef i32 @_ZNK5clang16OMPVarListClauseINS_15OMPLinearClauseEE12varlist_sizeEv(ptr noundef nonnull align 4 dereferenceable(20) %5)
  %14 = zext i32 %13 to i64
  call void @_ZN4llvm15MutableArrayRefIPN5clang4ExprEEC2EPS3_m(ptr noundef nonnull align 8 dereferenceable(16) %2, ptr noundef %12, i64 noundef %14)
  %15 = getelementptr inbounds nuw %"class.llvm::MutableArrayRef", ptr %2, i32 0, i32 0
  %16 = load { ptr, i64 }, ptr %15, align 8
  ret { ptr, i64 } %16
}

; Function Attrs: mustprogress nounwind uwtable
define linkonce_odr hidden noundef ptr @_ZNK4llvm8ArrayRefIPN5clang4ExprEE3endEv(ptr noundef nonnull align 8 dereferenceable(16) %0) #0 comdat align 2 {
  %2 = alloca ptr, align 8
  store ptr %0, ptr %2, align 8
  %3 = load ptr, ptr %2, align 8
  %4 = getelementptr inbounds nuw %"class.llvm::ArrayRef", ptr %3, i32 0, i32 0
  %5 = load ptr, ptr %4, align 8
  %6 = getelementptr inbounds nuw %"class.llvm::ArrayRef", ptr %3, i32 0, i32 1
  %7 = load i64, ptr %6, align 8
  %8 = getelementptr inbounds ptr, ptr %5, i64 %7
  ret ptr %8
}

; Function Attrs: mustprogress nounwind uwtable
define linkonce_odr hidden noundef ptr @_ZNK4llvm8ArrayRefIPN5clang4ExprEE5beginEv(ptr noundef nonnull align 8 dereferenceable(16) %0) #0 comdat align 2 {
  %2 = alloca ptr, align 8
  store ptr %0, ptr %2, align 8
  %3 = load ptr, ptr %2, align 8
  %4 = getelementptr inbounds nuw %"class.llvm::ArrayRef", ptr %3, i32 0, i32 0
  %5 = load ptr, ptr %4, align 8
  ret ptr %5
}

; Function Attrs: mustprogress nounwind uwtable
define dso_local void @_ZN5clang15OMPLinearClause12setUsedExprsEN4llvm8ArrayRefIPNS_4ExprEEE(ptr noundef nonnull align 8 dereferenceable(64) %0, ptr %1, i64 %2) #0 align 2 {
  %4 = alloca %"class.llvm::ArrayRef", align 8
  %5 = alloca ptr, align 8
  %6 = alloca %"class.llvm::MutableArrayRef", align 8
  %7 = getelementptr inbounds nuw { ptr, i64 }, ptr %4, i32 0, i32 0
  store ptr %1, ptr %7, align 8
  %8 = getelementptr inbounds nuw { ptr, i64 }, ptr %4, i32 0, i32 1
  store i64 %2, ptr %8, align 8
  store ptr %0, ptr %5, align 8
  %9 = load ptr, ptr %5, align 8
  %10 = call noundef ptr @_ZNK4llvm8ArrayRefIPN5clang4ExprEE5beginEv(ptr noundef nonnull align 8 dereferenceable(16) %4)
  %11 = call noundef ptr @_ZNK4llvm8ArrayRefIPN5clang4ExprEE3endEv(ptr noundef nonnull align 8 dereferenceable(16) %4)
  %12 = call { ptr, i64 } @_ZN5clang15OMPLinearClause9getFinalsEv(ptr noundef nonnull align 8 dereferenceable(64) %9)
  %13 = getelementptr inbounds nuw %"class.llvm::MutableArrayRef", ptr %6, i32 0, i32 0
  %14 = getelementptr inbounds nuw { ptr, i64 }, ptr %13, i32 0, i32 0
  %15 = extractvalue { ptr, i64 } %12, 0
  store ptr %15, ptr %14, align 8
  %16 = getelementptr inbounds nuw { ptr, i64 }, ptr %13, i32 0, i32 1
  %17 = extractvalue { ptr, i64 } %12, 1
  store i64 %17, ptr %16, align 8
  %18 = call noundef ptr @_ZNK4llvm15MutableArrayRefIPN5clang4ExprEE3endEv(ptr noundef nonnull align 8 dereferenceable(16) %6)
  %19 = getelementptr inbounds ptr, ptr %18, i64 2
  %20 = call noundef ptr @_ZSt4copyIPKPN5clang4ExprEPS2_ET0_T_S7_S6_(ptr noundef %10, ptr noundef %11, ptr noundef %19)
  ret void
}